target datalayout = "e-m:e-p270:32:32-p271:32:32-p272:64:64-i64:64-i128:128-f80:128-n8:16:32:64-S128"
target triple = "x86_64-pc-linux-gnu"

%struct.commit_extra_header = type { ptr, ptr, ptr, i64 }

; Function Attrs: nounwind uwtable
define dso_local void @free_commit_extra_headers(ptr noundef %0) #0 {
  %2 = alloca ptr, align 8
  %3 = alloca ptr, align 8
  store ptr %0, ptr %2, align 8, !tbaa !199
  br label %4

4:                                                ; preds = %7, %1
  %5 = load ptr, ptr %2, align 8, !tbaa !199
  %6 = icmp ne ptr %5, null
  br i1 %6, label %7, label %19

7:                                                ; preds = %4
  call void @llvm.lifetime.start.p0(i64 8, ptr %3) #11
  %8 = load ptr, ptr %2, align 8, !tbaa !199
  %9 = getelementptr inbounds nuw %struct.commit_extra_header, ptr %8, i32 0, i32 0
  %10 = load ptr, ptr %9, align 8, !tbaa !208
  store ptr %10, ptr %3, align 8, !tbaa !199
  %11 = load ptr, ptr %2, align 8, !tbaa !199
  %12 = getelementptr inbounds nuw %struct.commit_extra_header, ptr %11, i32 0, i32 1
  %13 = load ptr, ptr %12, align 8, !tbaa !201
  call void @free(ptr noundef %13) #11
  %14 = load ptr, ptr %2, align 8, !tbaa !199
  %15 = getelementptr inbounds nuw %struct.commit_extra_header, ptr %14, i32 0, i32 2
  %16 = load ptr, ptr %15, align 8, !tbaa !203
  call void @free(ptr noundef %16) #11
  %17 = load ptr, ptr %2, align 8, !tbaa !199
  call void @free(ptr noundef %17) #11
  %18 = load ptr, ptr %3, align 8, !tbaa !199
  store ptr %18, ptr %2, align 8, !tbaa !199
  call void @llvm.lifetime.end.p0(i64 8, ptr %3) #11
  br label %4, !llvm.loop !210

19:                                               ; preds = %4
  ret void
}