; Function Attrs: nounwind uwtable
define dso_local void @free_commit_extra_headers(ptr noundef %0) local_unnamed_addr #0 {
  %.not6 = icmp eq ptr %0, null
  br i1 %.not6, label %._crit_edge, label %.lr.ph

.lr.ph:                                           ; preds = %1, %.lr.ph
  %.07 = phi ptr [ %2, %.lr.ph ], [ %0, %1 ]
  %2 = load ptr, ptr %.07, align 8, !tbaa !183
  %3 = getelementptr inbounds nuw i8, ptr %.07, i64 8
  %4 = load ptr, ptr %3, align 8, !tbaa !173
  tail call void @free(ptr noundef %4) #24
  %5 = getelementptr inbounds nuw i8, ptr %.07, i64 16
  %6 = load ptr, ptr %5, align 8, !tbaa !176
  tail call void @free(ptr noundef %6) #24
  tail call void @free(ptr noundef nonnull %.07) #24
  %.not = icmp eq ptr %2, null
  br i1 %.not, label %._crit_edge, label %.lr.ph, !llvm.loop !185

._crit_edge:                                      ; preds = %.lr.ph, %1
  ret void
}